target datalayout = "e-m:e-p270:32:32-p271:32:32-p272:64:64-i64:64-i128:128-f80:128-n8:16:32:64-S128"
target triple = "x86_64-pc-linux-gnu"

%struct.VP8LBitEntropy = type { i64, i32, i32, i32, i32 }
%struct.VP8LStreaks = type { [2 x i32], [2 x [2 x i32]] }

@VP8LGetEntropyUnrefined = external global ptr, align 8

; Function Attrs: nounwind uwtable
define internal i64 @InitialHuffmanCost() #0 {
  %1 = call i64 @DivRound(i64 noundef 763363328, i64 noundef 10)
  %2 = sub i64 478150656, %1
  ret i64 %2
}

; Function Attrs: inlinehint nounwind uwtable
define internal i64 @DivRound(i64 noundef %0, i64 noundef %1) #3 {
  %3 = alloca i64, align 8
  %4 = alloca i64, align 8
  store i64 %0, ptr %3, align 8, !tbaa !30
  store i64 %1, ptr %4, align 8, !tbaa !30
  %5 = load i64, ptr %3, align 8, !tbaa !30
  %6 = icmp slt i64 %5, 0
  %7 = zext i1 %6 to i32
  %8 = load i64, ptr %4, align 8, !tbaa !30
  %9 = icmp slt i64 %8, 0
  %10 = zext i1 %9 to i32
  %11 = icmp eq i32 %7, %10
  br i1 %11, label %12, label %19

12:                                               ; preds = %2
  %13 = load i64, ptr %3, align 8, !tbaa !30
  %14 = load i64, ptr %4, align 8, !tbaa !30
  %15 = sdiv i64 %14, 2
  %16 = add nsw i64 %13, %15
  %17 = load i64, ptr %4, align 8, !tbaa !30
  %18 = sdiv i64 %16, %17
  br label %26

19:                                               ; preds = %2
  %20 = load i64, ptr %3, align 8, !tbaa !30
  %21 = load i64, ptr %4, align 8, !tbaa !30
  %22 = sdiv i64 %21, 2
  %23 = sub nsw i64 %20, %22
  %24 = load i64, ptr %4, align 8, !tbaa !30
  %25 = sdiv i64 %23, %24
  br label %26

26:                                               ; preds = %19, %12
  %27 = phi i64 [ %18, %12 ], [ %25, %19 ]
  ret i64 %27
}

; Function Attrs: nounwind uwtable
define internal i64 @FinalHuffmanCost(ptr noundef %0) #0 {
  %2 = alloca ptr, align 8
  %3 = alloca i64, align 8
  %4 = alloca i32, align 4
  store ptr %0, ptr %2, align 8, !tbaa !3
  call void @llvm.lifetime.start.p0(i64 8, ptr %3) #7
  %5 = call i64 @InitialHuffmanCost()
  store i64 %5, ptr %3, align 8, !tbaa !30
  call void @llvm.lifetime.start.p0(i64 4, ptr %4) #7
  %6 = load ptr, ptr %2, align 8, !tbaa !3
  %7 = getelementptr inbounds nuw %struct.VP8LStreaks, ptr %6, i32 0, i32 0
  %8 = getelementptr inbounds [2 x i32], ptr %7, i64 0, i64 0
  %9 = load i32, ptr %8, align 4, !tbaa !14
  %10 = mul nsw i32 %9, 1600
  %11 = load ptr, ptr %2, align 8, !tbaa !3
  %12 = getelementptr inbounds nuw %struct.VP8LStreaks, ptr %11, i32 0, i32 1
  %13 = getelementptr inbounds [2 x [2 x i32]], ptr %12, i64 0, i64 0
  %14 = getelementptr inbounds [2 x i32], ptr %13, i64 0, i64 1
  %15 = load i32, ptr %14, align 4, !tbaa !14
  %16 = mul nsw i32 240, %15
  %17 = add nsw i32 %10, %16
  store i32 %17, ptr %4, align 4, !tbaa !14
  %18 = load ptr, ptr %2, align 8, !tbaa !3
  %19 = getelementptr inbounds nuw %struct.VP8LStreaks, ptr %18, i32 0, i32 0
  %20 = getelementptr inbounds [2 x i32], ptr %19, i64 0, i64 1
  %21 = load i32, ptr %20, align 4, !tbaa !14
  %22 = mul nsw i32 %21, 2640
  %23 = load ptr, ptr %2, align 8, !tbaa !3
  %24 = getelementptr inbounds nuw %struct.VP8LStreaks, ptr %23, i32 0, i32 1
  %25 = getelementptr inbounds [2 x [2 x i32]], ptr %24, i64 0, i64 1
  %26 = getelementptr inbounds [2 x i32], ptr %25, i64 0, i64 1
  %27 = load i32, ptr %26, align 4, !tbaa !14
  %28 = mul nsw i32 720, %27
  %29 = add nsw i32 %22, %28
  %30 = load i32, ptr %4, align 4, !tbaa !14
  %31 = add i32 %30, %29
  store i32 %31, ptr %4, align 4, !tbaa !14
  %32 = load ptr, ptr %2, align 8, !tbaa !3
  %33 = getelementptr inbounds nuw %struct.VP8LStreaks, ptr %32, i32 0, i32 1
  %34 = getelementptr inbounds [2 x [2 x i32]], ptr %33, i64 0, i64 0
  %35 = getelementptr inbounds [2 x i32], ptr %34, i64 0, i64 0
  %36 = load i32, ptr %35, align 4, !tbaa !14
  %37 = mul nsw i32 1840, %36
  %38 = load i32, ptr %4, align 4, !tbaa !14
  %39 = add i32 %38, %37
  store i32 %39, ptr %4, align 4, !tbaa !14
  %40 = load ptr, ptr %2, align 8, !tbaa !3
  %41 = getelementptr inbounds nuw %struct.VP8LStreaks, ptr %40, i32 0, i32 1
  %42 = getelementptr inbounds [2 x [2 x i32]], ptr %41, i64 0, i64 1
  %43 = getelementptr inbounds [2 x i32], ptr %42, i64 0, i64 0
  %44 = load i32, ptr %43, align 4, !tbaa !14
  %45 = mul nsw i32 3360, %44
  %46 = load i32, ptr %4, align 4, !tbaa !14
  %47 = add i32 %46, %45
  store i32 %47, ptr %4, align 4, !tbaa !14
  %48 = load i64, ptr %3, align 8, !tbaa !30
  %49 = load i32, ptr %4, align 4, !tbaa !14
  %50 = zext i32 %49 to i64
  %51 = shl i64 %50, 13
  %52 = add i64 %48, %51
  call void @llvm.lifetime.end.p0(i64 4, ptr %4) #7
  call void @llvm.lifetime.end.p0(i64 8, ptr %3) #7
  ret i64 %52
}

; Function Attrs: inlinehint nounwind uwtable
define internal i64 @BitsEntropyRefine(ptr noundef %0) #3 {
  %2 = alloca i64, align 8
  %3 = alloca ptr, align 8
  %4 = alloca i64, align 8
  %5 = alloca i32, align 4
  %6 = alloca i64, align 8
  store ptr %0, ptr %3, align 8, !tbaa !3
  call void @llvm.lifetime.start.p0(i64 8, ptr %4) #7
  %7 = load ptr, ptr %3, align 8, !tbaa !3
  %8 = getelementptr inbounds nuw %struct.VP8LBitEntropy, ptr %7, i32 0, i32 2
  %9 = load i32, ptr %8, align 4, !tbaa !48
  %10 = icmp slt i32 %9, 5
  br i1 %10, label %11, label %42

11:                                               ; preds = %1
  %12 = load ptr, ptr %3, align 8, !tbaa !3
  %13 = getelementptr inbounds nuw %struct.VP8LBitEntropy, ptr %12, i32 0, i32 2
  %14 = load i32, ptr %13, align 4, !tbaa !48
  %15 = icmp sle i32 %14, 1
  br i1 %15, label %16, label %17

16:                                               ; preds = %11
  store i64 0, ptr %2, align 8
  store i32 1, ptr %5, align 4
  br label %78

17:                                               ; preds = %11
  %18 = load ptr, ptr %3, align 8, !tbaa !3
  %19 = getelementptr inbounds nuw %struct.VP8LBitEntropy, ptr %18, i32 0, i32 2
  %20 = load i32, ptr %19, align 4, !tbaa !48
  %21 = icmp eq i32 %20, 2
  br i1 %21, label %22, label %34

22:                                               ; preds = %17
  %23 = load ptr, ptr %3, align 8, !tbaa !3
  %24 = getelementptr inbounds nuw %struct.VP8LBitEntropy, ptr %23, i32 0, i32 1
  %25 = load i32, ptr %24, align 8, !tbaa !50
  %26 = zext i32 %25 to i64
  %27 = shl i64 %26, 23
  %28 = mul i64 99, %27
  %29 = load ptr, ptr %3, align 8, !tbaa !3
  %30 = getelementptr inbounds nuw %struct.VP8LBitEntropy, ptr %29, i32 0, i32 0
  %31 = load i64, ptr %30, align 8, !tbaa !51
  %32 = add i64 %28, %31
  %33 = call i64 @DivRound(i64 noundef %32, i64 noundef 100)
  store i64 %33, ptr %2, align 8
  store i32 1, ptr %5, align 4
  br label %78

34:                                               ; preds = %17
  %35 = load ptr, ptr %3, align 8, !tbaa !3
  %36 = getelementptr inbounds nuw %struct.VP8LBitEntropy, ptr %35, i32 0, i32 2
  %37 = load i32, ptr %36, align 4, !tbaa !48
  %38 = icmp eq i32 %37, 3
  br i1 %38, label %39, label %40

39:                                               ; preds = %34
  store i64 950, ptr %4, align 8, !tbaa !30
  br label %41

40:                                               ; preds = %34
  store i64 700, ptr %4, align 8, !tbaa !30
  br label %41

41:                                               ; preds = %40, %39
  br label %43

42:                                               ; preds = %1
  store i64 627, ptr %4, align 8, !tbaa !30
  br label %43

43:                                               ; preds = %42, %41
  call void @llvm.lifetime.start.p0(i64 8, ptr %6) #7
  %44 = load ptr, ptr %3, align 8, !tbaa !3
  %45 = getelementptr inbounds nuw %struct.VP8LBitEntropy, ptr %44, i32 0, i32 1
  %46 = load i32, ptr %45, align 8, !tbaa !50
  %47 = mul i32 2, %46
  %48 = load ptr, ptr %3, align 8, !tbaa !3
  %49 = getelementptr inbounds nuw %struct.VP8LBitEntropy, ptr %48, i32 0, i32 3
  %50 = load i32, ptr %49, align 8, !tbaa !52
  %51 = sub i32 %47, %50
  %52 = zext i32 %51 to i64
  %53 = shl i64 %52, 23
  store i64 %53, ptr %6, align 8, !tbaa !30
  %54 = load i64, ptr %4, align 8, !tbaa !30
  %55 = load i64, ptr %6, align 8, !tbaa !30
  %56 = mul i64 %54, %55
  %57 = load i64, ptr %4, align 8, !tbaa !30
  %58 = sub i64 1000, %57
  %59 = load ptr, ptr %3, align 8, !tbaa !3
  %60 = getelementptr inbounds nuw %struct.VP8LBitEntropy, ptr %59, i32 0, i32 0
  %61 = load i64, ptr %60, align 8, !tbaa !51
  %62 = mul i64 %58, %61
  %63 = add i64 %56, %62
  %64 = call i64 @DivRound(i64 noundef %63, i64 noundef 1000)
  store i64 %64, ptr %6, align 8, !tbaa !30
  %65 = load ptr, ptr %3, align 8, !tbaa !3
  %66 = getelementptr inbounds nuw %struct.VP8LBitEntropy, ptr %65, i32 0, i32 0
  %67 = load i64, ptr %66, align 8, !tbaa !51
  %68 = load i64, ptr %6, align 8, !tbaa !30
  %69 = icmp ult i64 %67, %68
  br i1 %69, label %70, label %72

70:                                               ; preds = %43
  %71 = load i64, ptr %6, align 8, !tbaa !30
  br label %76

72:                                               ; preds = %43
  %73 = load ptr, ptr %3, align 8, !tbaa !3
  %74 = getelementptr inbounds nuw %struct.VP8LBitEntropy, ptr %73, i32 0, i32 0
  %75 = load i64, ptr %74, align 8, !tbaa !51
  br label %76

76:                                               ; preds = %72, %70
  %77 = phi i64 [ %71, %70 ], [ %75, %72 ]
  store i64 %77, ptr %2, align 8
  store i32 1, ptr %5, align 4
  call void @llvm.lifetime.end.p0(i64 8, ptr %6) #7
  br label %78

78:                                               ; preds = %76, %22, %16
  call void @llvm.lifetime.end.p0(i64 8, ptr %4) #7
  %79 = load i64, ptr %2, align 8
  ret i64 %79
}

; Function Attrs: nounwind uwtable
define internal i64 @PopulationCost(ptr noundef %0, i32 noundef %1, ptr noundef %2, ptr noundef %3) #0 {
  %5 = alloca ptr, align 8
  %6 = alloca i32, align 4
  %7 = alloca ptr, align 8
  %8 = alloca ptr, align 8
  %9 = alloca %struct.VP8LBitEntropy, align 8
  %10 = alloca %struct.VP8LStreaks, align 4
  store ptr %0, ptr %5, align 8, !tbaa !22
  store i32 %1, ptr %6, align 4, !tbaa !14
  store ptr %2, ptr %7, align 8, !tbaa !22
  store ptr %3, ptr %8, align 8, !tbaa !28
  call void @llvm.lifetime.start.p0(i64 24, ptr %9) #7
  call void @llvm.lifetime.start.p0(i64 24, ptr %10) #7
  %11 = load ptr, ptr @VP8LGetEntropyUnrefined, align 8, !tbaa !3
  %12 = load ptr, ptr %5, align 8, !tbaa !22
  %13 = load i32, ptr %6, align 4, !tbaa !14
  call void %11(ptr noundef %12, i32 noundef %13, ptr noundef %9, ptr noundef %10)
  %14 = load ptr, ptr %7, align 8, !tbaa !22
  %15 = icmp ne ptr %14, null
  br i1 %15, label %16, label %27

16:                                               ; preds = %4
  %17 = getelementptr inbounds nuw %struct.VP8LBitEntropy, ptr %9, i32 0, i32 2
  %18 = load i32, ptr %17, align 4, !tbaa !48
  %19 = icmp eq i32 %18, 1
  br i1 %19, label %20, label %23

20:                                               ; preds = %16
  %21 = getelementptr inbounds nuw %struct.VP8LBitEntropy, ptr %9, i32 0, i32 4
  %22 = load i32, ptr %21, align 4, !tbaa !53
  br label %24

23:                                               ; preds = %16
  br label %24

24:                                               ; preds = %23, %20
  %25 = phi i32 [ %22, %20 ], [ -1, %23 ]
  %26 = load ptr, ptr %7, align 8, !tbaa !22
  store i32 %25, ptr %26, align 4, !tbaa !14
  br label %27

27:                                               ; preds = %24, %4
  %28 = getelementptr inbounds nuw %struct.VP8LStreaks, ptr %10, i32 0, i32 1
  %29 = getelementptr inbounds [2 x [2 x i32]], ptr %28, i64 0, i64 1
  %30 = getelementptr inbounds [2 x i32], ptr %29, i64 0, i64 0
  %31 = load i32, ptr %30, align 4, !tbaa !14
  %32 = icmp ne i32 %31, 0
  br i1 %32, label %39, label %33

33:                                               ; preds = %27
  %34 = getelementptr inbounds nuw %struct.VP8LStreaks, ptr %10, i32 0, i32 1
  %35 = getelementptr inbounds [2 x [2 x i32]], ptr %34, i64 0, i64 1
  %36 = getelementptr inbounds [2 x i32], ptr %35, i64 0, i64 1
  %37 = load i32, ptr %36, align 4, !tbaa !14
  %38 = icmp ne i32 %37, 0
  br label %39

39:                                               ; preds = %33, %27
  %40 = phi i1 [ true, %27 ], [ %38, %33 ]
  %41 = zext i1 %40 to i32
  %42 = trunc i32 %41 to i8
  %43 = load ptr, ptr %8, align 8, !tbaa !28
  store i8 %42, ptr %43, align 1, !tbaa !43
  %44 = call i64 @BitsEntropyRefine(ptr noundef %9)
  %45 = call i64 @FinalHuffmanCost(ptr noundef %10)
  %46 = add i64 %44, %45
  call void @llvm.lifetime.end.p0(i64 24, ptr %10) #7
  call void @llvm.lifetime.end.p0(i64 24, ptr %9) #7
  ret i64 %46
}