; Function Attrs: nounwind uwtable
define internal fastcc i64 @PopulationCost(ptr noundef %0, i32 noundef range(i32 -2147483368, -2147483648) %1, ptr noundef writeonly captures(address_is_null) %2, ptr noundef writeonly captures(none) initializes((0, 1)) %3) unnamed_addr #0 {
  %5 = alloca %struct.VP8LBitEntropy, align 8
  %6 = alloca %struct.VP8LStreaks, align 4
  call void @llvm.lifetime.start.p0(i64 24, ptr nonnull %5) #10
  call void @llvm.lifetime.start.p0(i64 24, ptr nonnull %6) #10
  %7 = load ptr, ptr @VP8LGetEntropyUnrefined, align 8, !tbaa !29
  call void %7(ptr noundef %0, i32 noundef %1, ptr noundef nonnull %5, ptr noundef nonnull %6) #10
  %.not = icmp eq ptr %2, null
  %.phi.trans.insert = getelementptr inbounds nuw i8, ptr %5, i64 12
  %.pre = load i32, ptr %.phi.trans.insert, align 4, !tbaa !33
  br i1 %.not, label %._crit_edge, label %8

8:                                                ; preds = %4
  %9 = icmp eq i32 %.pre, 1
  %10 = getelementptr inbounds nuw i8, ptr %5, i64 20
  %11 = load i32, ptr %10, align 4
  %12 = select i1 %9, i32 %11, i32 -1
  store i32 %12, ptr %2, align 4, !tbaa !17
  br label %._crit_edge

._crit_edge:                                      ; preds = %4, %8
  %13 = getelementptr inbounds nuw i8, ptr %6, i64 16
  %14 = load i32, ptr %13, align 4, !tbaa !17
  %15 = icmp ne i32 %14, 0
  %16 = getelementptr inbounds nuw i8, ptr %6, i64 20
  %17 = load i32, ptr %16, align 4
  %18 = icmp ne i32 %17, 0
  %19 = select i1 %15, i1 true, i1 %18
  %20 = zext i1 %19 to i8
  store i8 %20, ptr %3, align 1, !tbaa !23
  %21 = icmp slt i32 %.pre, 5
  br i1 %21, label %22, label %39

22:                                               ; preds = %._crit_edge
  %23 = icmp slt i32 %.pre, 2
  br i1 %23, label %BitsEntropyRefine.exit, label %24

24:                                               ; preds = %22
  switch i32 %.pre, label %38 [
    i32 2, label %25
    i32 3, label %39
  ]

25:                                               ; preds = %24
  %26 = getelementptr inbounds nuw i8, ptr %5, i64 8
  %27 = load i32, ptr %26, align 8, !tbaa !35
  %28 = zext i32 %27 to i64
  %29 = mul nuw nsw i64 %28, 830472192
  %30 = load i64, ptr %5, align 8, !tbaa !36
  %31 = add i64 %29, %30
  %32 = icmp sgt i64 %31, -1
  br i1 %32, label %33, label %36

33:                                               ; preds = %25
  %34 = add nuw nsw i64 %31, 50
  %35 = udiv i64 %34, 100
  br label %BitsEntropyRefine.exit

36:                                               ; preds = %25
  %.neg8.i.i = sub i64 50, %31
  %37 = udiv i64 %.neg8.i.i, 100
  %.neg.i.i = sub nsw i64 0, %37
  br label %BitsEntropyRefine.exit

38:                                               ; preds = %24
  br label %39

39:                                               ; preds = %38, %24, %._crit_edge
  %.0.i = phi i64 [ 700, %38 ], [ 950, %24 ], [ 627, %._crit_edge ]
  %40 = getelementptr inbounds nuw i8, ptr %5, i64 8
  %41 = load i32, ptr %40, align 8, !tbaa !35
  %42 = shl i32 %41, 1
  %43 = getelementptr inbounds nuw i8, ptr %5, i64 16
  %44 = load i32, ptr %43, align 8, !tbaa !37
  %45 = sub i32 %42, %44
  %46 = zext i32 %45 to i64
  %47 = shl nuw nsw i64 %.0.i, 23
  %48 = mul i64 %47, %46
  %49 = sub nuw nsw i64 1000, %.0.i
  %50 = load i64, ptr %5, align 8, !tbaa !36
  %51 = mul i64 %50, %49
  %52 = add i64 %48, %51
  %53 = icmp sgt i64 %52, -1
  br i1 %53, label %54, label %57

54:                                               ; preds = %39
  %55 = add nuw nsw i64 %52, 500
  %56 = udiv i64 %55, 1000
  br label %DivRound.exit22.i

57:                                               ; preds = %39
  %.neg8.i20.i = sub i64 500, %52
  %58 = udiv i64 %.neg8.i20.i, 1000
  %.neg.i21.i = sub nsw i64 0, %58
  br label %DivRound.exit22.i

DivRound.exit22.i:                                ; preds = %57, %54
  %59 = phi i64 [ %56, %54 ], [ %.neg.i21.i, %57 ]
  %..i = call i64 @llvm.umax.i64(i64 %50, i64 %59)
  br label %BitsEntropyRefine.exit

BitsEntropyRefine.exit:                           ; preds = %22, %33, %36, %DivRound.exit22.i
  %.016.i = phi i64 [ %..i, %DivRound.exit22.i ], [ 0, %22 ], [ %35, %33 ], [ %.neg.i.i, %36 ]
  %60 = load i32, ptr %6, align 4, !tbaa !17
  %61 = mul nsw i32 %60, 1600
  %62 = getelementptr inbounds nuw i8, ptr %6, i64 8
  %63 = getelementptr inbounds nuw i8, ptr %6, i64 12
  %64 = load i32, ptr %63, align 4, !tbaa !17
  %65 = mul nsw i32 %64, 240
  %66 = getelementptr inbounds nuw i8, ptr %6, i64 4
  %67 = load i32, ptr %66, align 4, !tbaa !17
  %68 = mul nsw i32 %67, 2640
  %69 = mul nsw i32 %17, 720
  %70 = load i32, ptr %62, align 4, !tbaa !17
  %71 = mul nsw i32 %70, 1840
  %72 = mul nsw i32 %14, 3360
  %73 = add i32 %69, %72
  %74 = add i32 %73, %61
  %75 = add i32 %74, %65
  %76 = add i32 %75, %68
  %77 = add i32 %76, %71
  %78 = zext i32 %77 to i64
  %79 = shl nuw nsw i64 %78, 13
  %80 = add i64 %.016.i, 401814323
  %81 = add i64 %80, %79
  call void @llvm.lifetime.end.p0(i64 24, ptr nonnull %6) #10
  call void @llvm.lifetime.end.p0(i64 24, ptr nonnull %5) #10
  ret i64 %81
}